target datalayout = "e-m:e-p270:32:32-p271:32:32-p272:64:64-i64:64-i128:128-f80:128-n8:16:32:64-S128"
target triple = "x86_64-unknown-linux-gnu"

module asm ".section\09\22.initcall5.init\22, \22a\22\09\09"
module asm "__initcall__kmod_pnp__315_113_pnp_system_init5:\09\09\09"
module asm ".long\09pnp_system_init - .\09"
module asm ".previous\09\09\09\09\09"

%struct.pnp_driver = type { ptr, ptr, i32, ptr, ptr, ptr, ptr, ptr, %struct.device_driver }
%struct.device_driver = type { ptr, ptr, ptr, ptr, i8, i32, ptr, ptr, ptr, ptr, ptr, ptr, ptr, ptr, ptr, ptr, ptr, ptr, ptr }
%struct.pnp_device_id = type { [8 x i8], i64 }
%struct.resource = type { i64, i64, ptr, i64, i64, ptr, ptr, ptr }

@__UNIQUE_ID___addressable_pnp_system_init316 = internal global ptr @pnp_system_init, section ".discard.addressable", align 8
@system_pnp_driver = internal global %struct.pnp_driver { ptr @.str, ptr @pnp_dev_table, i32 1, ptr @system_pnp_probe, ptr null, ptr null, ptr null, ptr null, %struct.device_driver zeroinitializer }, align 8
@.str = private unnamed_addr constant [7 x i8] c"system\00", align 1
@pnp_dev_table = internal constant [3 x %struct.pnp_device_id] [%struct.pnp_device_id { [8 x i8] c"PNP0c02\00", i64 0 }, %struct.pnp_device_id { [8 x i8] c"PNP0c01\00", i64 0 }, %struct.pnp_device_id zeroinitializer], align 16
@.str.1 = private unnamed_addr constant [7 x i8] c"pnp %s\00", align 1
@ioport_resource = external dso_local global %struct.resource, align 8
@iomem_resource = external dso_local global %struct.resource, align 8
@.str.2 = private unnamed_addr constant [17 x i8] c"%pR %s reserved\0A\00", align 1
@.str.3 = private unnamed_addr constant [9 x i8] c"has been\00", align 1
@.str.4 = private unnamed_addr constant [13 x i8] c"could not be\00", align 1
@kmalloc_caches = external dso_local local_unnamed_addr global [3 x [14 x ptr]], align 16
@llvm.compiler.used = appending global [1 x ptr] [ptr @__UNIQUE_ID___addressable_pnp_system_init316], section "llvm.metadata"

; Function Attrs: cold fn_ret_thunk_extern nounwind null_pointer_is_valid optsize
define internal i32 @pnp_system_init() #0 section ".init.text" align 16 {
  %1 = tail call i32 @pnp_register_driver(ptr noundef nonnull @system_pnp_driver) #6
  ret i32 %1
}

; Function Attrs: null_pointer_is_valid
declare dso_local i32 @pnp_register_driver(ptr noundef) local_unnamed_addr #1

; Function Attrs: fn_ret_thunk_extern nounwind null_pointer_is_valid
define internal noundef i32 @system_pnp_probe(ptr noundef %0, ptr nocapture readnone %1) #2 align 16 {
  %3 = tail call ptr @pnp_get_resource(ptr noundef %0, i64 noundef 256, i32 noundef 0) #6
  %4 = icmp eq ptr %3, null
  br i1 %4, label %5, label %8

5:                                                ; preds = %23, %2
  %6 = tail call ptr @pnp_get_resource(ptr noundef %0, i64 noundef 512, i32 noundef 0) #6
  %7 = icmp eq ptr %6, null
  br i1 %7, label %39, label %27

8:                                                ; preds = %23, %2
  %9 = phi ptr [ %25, %23 ], [ %3, %2 ]
  %10 = phi i32 [ %24, %23 ], [ 0, %2 ]
  %11 = getelementptr inbounds i8, ptr %9, i64 24
  %12 = load i64, ptr %11, align 8
  %13 = and i64 %12, 268435456
  %14 = icmp eq i64 %13, 0
  br i1 %14, label %15, label %23

15:                                               ; preds = %8
  %16 = load i64, ptr %9, align 8
  %17 = icmp ult i64 %16, 256
  br i1 %17, label %23, label %18

18:                                               ; preds = %15
  %19 = getelementptr inbounds i8, ptr %9, i64 8
  %20 = load i64, ptr %19, align 8
  %21 = icmp ult i64 %20, %16
  br i1 %21, label %23, label %22

22:                                               ; preds = %18
  tail call fastcc void @reserve_range(ptr noundef %0, ptr noundef nonnull %9, i32 noundef 1)
  br label %23

23:                                               ; preds = %22, %18, %15, %8
  %24 = add i32 %10, 1
  %25 = tail call ptr @pnp_get_resource(ptr noundef %0, i64 noundef 256, i32 noundef %24) #6
  %26 = icmp eq ptr %25, null
  br i1 %26, label %5, label %8, !llvm.loop !5

27:                                               ; preds = %35, %5
  %28 = phi ptr [ %37, %35 ], [ %6, %5 ]
  %29 = phi i32 [ %36, %35 ], [ 0, %5 ]
  %30 = getelementptr inbounds i8, ptr %28, i64 24
  %31 = load i64, ptr %30, align 8
  %32 = and i64 %31, 268435456
  %33 = icmp eq i64 %32, 0
  br i1 %33, label %34, label %35

34:                                               ; preds = %27
  tail call fastcc void @reserve_range(ptr noundef %0, ptr noundef nonnull %28, i32 noundef 0)
  br label %35

35:                                               ; preds = %34, %27
  %36 = add i32 %29, 1
  %37 = tail call ptr @pnp_get_resource(ptr noundef %0, i64 noundef 512, i32 noundef %36) #6
  %38 = icmp eq ptr %37, null
  br i1 %38, label %39, label %27, !llvm.loop !8

39:                                               ; preds = %35, %5
  ret i32 0
}

; Function Attrs: null_pointer_is_valid
declare dso_local ptr @pnp_get_resource(ptr noundef, i64 noundef, i32 noundef) local_unnamed_addr #1

; Function Attrs: fn_ret_thunk_extern nounwind null_pointer_is_valid
define internal fastcc void @reserve_range(ptr noundef %0, ptr noundef %1, i32 noundef %2) unnamed_addr #2 align 16 {
  %4 = getelementptr inbounds i8, ptr %0, i64 80
  %5 = load ptr, ptr %4, align 8
  %6 = icmp eq ptr %5, null
  br i1 %6, label %7, label %9

7:                                                ; preds = %3
  %8 = load ptr, ptr %0, align 8
  br label %9

9:                                                ; preds = %7, %3
  %10 = phi ptr [ %8, %7 ], [ %5, %3 ]
  %11 = load i64, ptr %1, align 8
  %12 = getelementptr inbounds i8, ptr %1, i64 8
  %13 = load i64, ptr %12, align 8
  %14 = load ptr, ptr getelementptr inbounds ([3 x [14 x ptr]], ptr @kmalloc_caches, i64 0, i64 0, i64 4), align 16
  %15 = tail call noalias align 8 dereferenceable_or_null(16) ptr @kmalloc_trace(ptr noundef %14, i32 noundef 3264, i64 noundef 16) #7
  %16 = icmp eq ptr %15, null
  br i1 %16, label %32, label %17

17:                                               ; preds = %9
  %18 = tail call i32 (ptr, i64, ptr, ...) @snprintf(ptr noundef nonnull dereferenceable(1) %15, i64 noundef 16, ptr noundef nonnull @.str.1, ptr noundef %10) #6
  %19 = icmp eq i32 %2, 0
  %20 = sub i64 %13, %11
  %21 = add i64 %20, 1
  %22 = select i1 %19, ptr @iomem_resource, ptr @ioport_resource
  %23 = tail call ptr @__request_region(ptr noundef nonnull %22, i64 noundef %11, i64 noundef %21, ptr noundef nonnull %15, i32 noundef 0) #6
  %24 = icmp eq ptr %23, null
  br i1 %24, label %29, label %25

25:                                               ; preds = %17
  %26 = getelementptr inbounds i8, ptr %23, i64 24
  %27 = load i64, ptr %26, align 8
  %28 = and i64 %27, 2147483647
  store i64 %28, ptr %26, align 8
  br label %30

29:                                               ; preds = %17
  tail call void @kfree(ptr noundef nonnull %15) #6
  br label %30

30:                                               ; preds = %29, %25
  %31 = phi ptr [ @.str.3, %25 ], [ @.str.4, %29 ]
  tail call void (ptr, ptr, ...) @_dev_info(ptr noundef %0, ptr noundef nonnull @.str.2, ptr noundef %1, ptr noundef nonnull %31) #8
  br label %32

32:                                               ; preds = %30, %9
  ret void
}

; Function Attrs: nofree nounwind null_pointer_is_valid
declare dso_local noundef i32 @snprintf(ptr noalias nocapture noundef writeonly, i64 noundef, ptr nocapture noundef readonly, ...) local_unnamed_addr #3

; Function Attrs: null_pointer_is_valid
declare dso_local ptr @__request_region(ptr noundef, i64 noundef, i64 noundef, ptr noundef, i32 noundef) local_unnamed_addr #1

; Function Attrs: null_pointer_is_valid
declare dso_local void @kfree(ptr noundef) local_unnamed_addr #1

; Function Attrs: cold null_pointer_is_valid
declare dso_local void @_dev_info(ptr noundef, ptr noundef, ...) local_unnamed_addr #4

; Function Attrs: null_pointer_is_valid allocsize(2)
declare dso_local noalias ptr @kmalloc_trace(ptr noundef, i32 noundef, i64 noundef) local_unnamed_addr #5


!llvm.module.flags = !{!0, !1, !2, !3, !4}

!0 = !{i32 1, !"wchar_size", i32 2}
!1 = !{i32 8, !"cf-protection-branch", i32 1}
!2 = !{i32 4, !"function_return_thunk_extern", i32 1}
!3 = !{i32 4, !"indirect_branch_cs_prefix", i32 1}
!4 = !{i32 4, !"SkipRaxSetup", i32 1}
!5 = distinct !{!5, !6, !7}
!6 = !{!"llvm.loop.mustprogress"}
!7 = !{!"llvm.loop.unroll.disable"}
!8 = distinct !{!8, !6, !7}
