; ModuleID = 'bench/linux/original/system.ll'
source_filename = "bench/linux/original/system.ll"
target datalayout = "e-m:e-p270:32:32-p271:32:32-p272:64:64-i64:64-i128:128-f80:128-n8:16:32:64-S128"
target triple = "x86_64-unknown-linux-gnu"

module asm ".section\09\22.initcall5.init\22, \22a\22\09\09"
module asm "__initcall__kmod_pnp__315_113_pnp_system_init5:\09\09\09"
module asm ".long\09pnp_system_init - .\09"
module asm ".previous\09\09\09\09\09"

%struct.pnp_driver = type { ptr, ptr, i32, ptr, ptr, ptr, ptr, ptr, %struct.device_driver }
%struct.device_driver = type { ptr, ptr, ptr, ptr, i8, i32, ptr, ptr, ptr, ptr, ptr, ptr, ptr, ptr, ptr, ptr, ptr, ptr, ptr }
%struct.pnp_device_id = type { [8 x i8], i64 }
%struct.resource = type { i64, i64, ptr, i64, i64, ptr, ptr, ptr }

@__UNIQUE_ID___addressable_pnp_system_init316 = internal global ptr @pnp_system_init, section ".discard.addressable", align 8
@system_pnp_driver = internal global %struct.pnp_driver { ptr @.str, ptr @pnp_dev_table, i32 1, ptr @system_pnp_probe, ptr null, ptr null, ptr null, ptr null, %struct.device_driver zeroinitializer }, align 8
@.str = private unnamed_addr constant [7 x i8] c"system\00", align 1
@pnp_dev_table = internal constant [3 x %struct.pnp_device_id] [%struct.pnp_device_id { [8 x i8] c"PNP0c02\00", i64 0 }, %struct.pnp_device_id { [8 x i8] c"PNP0c01\00", i64 0 }, %struct.pnp_device_id zeroinitializer], align 16
@.str.1 = private unnamed_addr constant [7 x i8] c"pnp %s\00", align 1
@ioport_resource = external dso_local global %struct.resource, align 8
@iomem_resource = external dso_local global %struct.resource, align 8
@.str.2 = private unnamed_addr constant [17 x i8] c"%pR %s reserved\0A\00", align 1
@.str.3 = private unnamed_addr constant [9 x i8] c"has been\00", align 1
@.str.4 = private unnamed_addr constant [13 x i8] c"could not be\00", align 1
@kmalloc_caches = external dso_local local_unnamed_addr global [3 x [14 x ptr]], align 16
@llvm.compiler.used = appending global [1 x ptr] [ptr @__UNIQUE_ID___addressable_pnp_system_init316], section "llvm.metadata"

; Function Attrs: cold fn_ret_thunk_extern nounwind null_pointer_is_valid optsize
define internal i32 @pnp_system_init() #0 section ".init.text" align 16 {
  %1 = tail call i32 @pnp_register_driver(ptr noundef nonnull @system_pnp_driver) #6
  ret i32 %1
}

; Function Attrs: null_pointer_is_valid
declare dso_local i32 @pnp_register_driver(ptr noundef) local_unnamed_addr #1

; Function Attrs: fn_ret_thunk_extern nounwind null_pointer_is_valid
define internal noundef i32 @system_pnp_probe(ptr noundef %0, ptr nocapture readnone %1) #2 align 16 {
  %3 = tail call ptr @pnp_get_resource(ptr noundef %0, i64 noundef 256, i32 noundef 0) #6
  %4 = icmp eq ptr %3, null
  br i1 %4, label %.loopexit6, label %.preheader5

.loopexit6:                                       ; preds = %21, %2
  %5 = tail call ptr @pnp_get_resource(ptr noundef %0, i64 noundef 512, i32 noundef 0) #6
  %6 = icmp eq ptr %5, null
  br i1 %6, label %.loopexit, label %.preheader

.preheader5:                                      ; preds = %2, %21
  %7 = phi ptr [ %23, %21 ], [ %3, %2 ]
  %8 = phi i32 [ %22, %21 ], [ 0, %2 ]
  %9 = getelementptr inbounds i8, ptr %7, i64 24
  %10 = load i64, ptr %9, align 8
  %11 = and i64 %10, 268435456
  %12 = icmp eq i64 %11, 0
  br i1 %12, label %13, label %21

13:                                               ; preds = %.preheader5
  %14 = load i64, ptr %7, align 8
  %15 = icmp ult i64 %14, 256
  br i1 %15, label %21, label %16

16:                                               ; preds = %13
  %17 = getelementptr inbounds i8, ptr %7, i64 8
  %18 = load i64, ptr %17, align 8
  %19 = icmp ult i64 %18, %14
  br i1 %19, label %21, label %20

20:                                               ; preds = %16
  tail call fastcc void @reserve_range(ptr noundef %0, ptr noundef nonnull %7, i32 noundef 1)
  br label %21

21:                                               ; preds = %20, %16, %13, %.preheader5
  %22 = add i32 %8, 1
  %23 = tail call ptr @pnp_get_resource(ptr noundef %0, i64 noundef 256, i32 noundef %22) #6
  %24 = icmp eq ptr %23, null
  br i1 %24, label %.loopexit6, label %.preheader5, !llvm.loop !5

.preheader:                                       ; preds = %.loopexit6, %32
  %25 = phi ptr [ %34, %32 ], [ %5, %.loopexit6 ]
  %26 = phi i32 [ %33, %32 ], [ 0, %.loopexit6 ]
  %27 = getelementptr inbounds i8, ptr %25, i64 24
  %28 = load i64, ptr %27, align 8
  %29 = and i64 %28, 268435456
  %30 = icmp eq i64 %29, 0
  br i1 %30, label %31, label %32

31:                                               ; preds = %.preheader
  tail call fastcc void @reserve_range(ptr noundef %0, ptr noundef nonnull %25, i32 noundef 0)
  br label %32

32:                                               ; preds = %31, %.preheader
  %33 = add i32 %26, 1
  %34 = tail call ptr @pnp_get_resource(ptr noundef %0, i64 noundef 512, i32 noundef %33) #6
  %35 = icmp eq ptr %34, null
  br i1 %35, label %.loopexit, label %.preheader, !llvm.loop !8

.loopexit:                                        ; preds = %32, %.loopexit6
  ret i32 0
}

; Function Attrs: null_pointer_is_valid
declare dso_local ptr @pnp_get_resource(ptr noundef, i64 noundef, i32 noundef) local_unnamed_addr #1

; Function Attrs: fn_ret_thunk_extern nounwind null_pointer_is_valid
define internal fastcc void @reserve_range(ptr noundef %0, ptr noundef %1, i32 noundef %2) unnamed_addr #2 align 16 {
  %4 = getelementptr inbounds i8, ptr %0, i64 80
  %5 = load ptr, ptr %4, align 8
  %6 = icmp eq ptr %5, null
  br i1 %6, label %7, label %9

7:                                                ; preds = %3
  %8 = load ptr, ptr %0, align 8
  br label %9

9:                                                ; preds = %7, %3
  %10 = phi ptr [ %8, %7 ], [ %5, %3 ]
  %11 = load i64, ptr %1, align 8
  %12 = getelementptr inbounds i8, ptr %1, i64 8
  %13 = load i64, ptr %12, align 8
  %14 = load ptr, ptr getelementptr inbounds ([3 x [14 x ptr]], ptr @kmalloc_caches, i64 0, i64 0, i64 4), align 16
  %15 = tail call noalias align 8 dereferenceable_or_null(16) ptr @kmalloc_trace(ptr noundef %14, i32 noundef 3264, i64 noundef 16) #7
  %16 = icmp eq ptr %15, null
  br i1 %16, label %31, label %17

17:                                               ; preds = %9
  %18 = tail call i32 (ptr, i64, ptr, ...) @snprintf(ptr noundef nonnull dereferenceable(1) %15, i64 noundef 16, ptr noundef nonnull @.str.1, ptr noundef %10) #6
  %19 = icmp eq i32 %2, 0
  %reass.sub = sub i64 %13, %11
  %20 = add i64 %reass.sub, 1
  %21 = select i1 %19, ptr @iomem_resource, ptr @ioport_resource
  %22 = tail call ptr @__request_region(ptr noundef nonnull %21, i64 noundef %11, i64 noundef %20, ptr noundef nonnull %15, i32 noundef 0) #6
  %23 = icmp eq ptr %22, null
  br i1 %23, label %28, label %24

24:                                               ; preds = %17
  %25 = getelementptr inbounds i8, ptr %22, i64 24
  %26 = load i64, ptr %25, align 8
  %27 = and i64 %26, 2147483647
  store i64 %27, ptr %25, align 8
  br label %29

28:                                               ; preds = %17
  tail call void @kfree(ptr noundef nonnull %15) #6
  br label %29

29:                                               ; preds = %28, %24
  %30 = phi ptr [ @.str.3, %24 ], [ @.str.4, %28 ]
  tail call void (ptr, ptr, ...) @_dev_info(ptr noundef %0, ptr noundef nonnull @.str.2, ptr noundef %1, ptr noundef nonnull %30) #8
  br label %31

31:                                               ; preds = %29, %9
  ret void
}

; Function Attrs: nofree nounwind null_pointer_is_valid
declare dso_local noundef i32 @snprintf(ptr noalias nocapture noundef writeonly, i64 noundef, ptr nocapture noundef readonly, ...) local_unnamed_addr #3

; Function Attrs: null_pointer_is_valid
declare dso_local ptr @__request_region(ptr noundef, i64 noundef, i64 noundef, ptr noundef, i32 noundef) local_unnamed_addr #1

; Function Attrs: null_pointer_is_valid
declare dso_local void @kfree(ptr noundef) local_unnamed_addr #1

; Function Attrs: cold null_pointer_is_valid
declare dso_local void @_dev_info(ptr noundef, ptr noundef, ...) local_unnamed_addr #4

; Function Attrs: null_pointer_is_valid allocsize(2)
declare dso_local noalias ptr @kmalloc_trace(ptr noundef, i32 noundef, i64 noundef) local_unnamed_addr #5


!llvm.module.flags = !{!0, !1, !2, !3, !4}

!0 = !{i32 1, !"wchar_size", i32 2}
!1 = !{i32 8, !"cf-protection-branch", i32 1}
!2 = !{i32 4, !"function_return_thunk_extern", i32 1}
!3 = !{i32 4, !"indirect_branch_cs_prefix", i32 1}
!4 = !{i32 4, !"SkipRaxSetup", i32 1}
!5 = distinct !{!5, !6, !7}
!6 = !{!"llvm.loop.mustprogress"}
!7 = !{!"llvm.loop.unroll.disable"}
!8 = distinct !{!8, !6, !7}
